target datalayout = "e-m:e-p270:32:32-p271:32:32-p272:64:64-i64:64-i128:128-f80:128-n8:16:32:64-S128"
target triple = "x86_64-pc-linux-gnu"

%struct.LookupDataStruct = type { i32, i32, i32 }
%struct.USetAdder = type { ptr, ptr, ptr, ptr, ptr, ptr }

; Function Attrs: mustprogress uwtable
define internal void @_ZL19_ISCIIGetUnicodeSetPK10UConverterPK9USetAdder20UConverterUnicodeSetP10UErrorCode(ptr noundef %0, ptr noundef %1, i32 noundef %2, ptr noundef %3) #0 {
  %5 = alloca ptr, align 8
  %6 = alloca ptr, align 8
  %7 = alloca i32, align 4
  %8 = alloca ptr, align 8
  %9 = alloca i32, align 4
  %10 = alloca i32, align 4
  %11 = alloca i8, align 1
  store ptr %0, ptr %5, align 8, !tbaa !3
  store ptr %1, ptr %6, align 8, !tbaa !85
  store i32 %2, ptr %7, align 4, !tbaa !87
  store ptr %3, ptr %8, align 8, !tbaa !8
  call void @llvm.lifetime.start.p0(i64 4, ptr %9) #10
  call void @llvm.lifetime.start.p0(i64 4, ptr %10) #10
  call void @llvm.lifetime.start.p0(i64 1, ptr %11) #10
  %12 = load ptr, ptr %6, align 8, !tbaa !85
  %13 = getelementptr inbounds nuw %struct.USetAdder, ptr %12, i32 0, i32 2
  %14 = load ptr, ptr %13, align 8, !tbaa !89
  %15 = load ptr, ptr %6, align 8, !tbaa !85
  %16 = getelementptr inbounds nuw %struct.USetAdder, ptr %15, i32 0, i32 0
  %17 = load ptr, ptr %16, align 8, !tbaa !92
  call void %14(ptr noundef %17, i32 noundef 0, i32 noundef 160)
  store i32 0, ptr %10, align 4, !tbaa !18
  br label %18

18:                                               ; preds = %64, %4
  %19 = load i32, ptr %10, align 4, !tbaa !18
  %20 = icmp sle i32 %19, 8
  br i1 %20, label %21, label %67

21:                                               ; preds = %18
  %22 = load i32, ptr %10, align 4, !tbaa !18
  %23 = sext i32 %22 to i64
  %24 = getelementptr inbounds [9 x %struct.LookupDataStruct], ptr @_ZL17lookupInitialData, i64 0, i64 %23
  %25 = getelementptr inbounds nuw %struct.LookupDataStruct, ptr %24, i32 0, i32 1
  %26 = load i32, ptr %25, align 4, !tbaa !34
  %27 = trunc i32 %26 to i8
  store i8 %27, ptr %11, align 1, !tbaa !39
  store i32 0, ptr %9, align 4, !tbaa !18
  br label %28

28:                                               ; preds = %60, %21
  %29 = load i32, ptr %9, align 4, !tbaa !18
  %30 = icmp slt i32 %29, 128
  br i1 %30, label %31, label %63

31:                                               ; preds = %28
  %32 = load i32, ptr %9, align 4, !tbaa !18
  %33 = sext i32 %32 to i64
  %34 = getelementptr inbounds [128 x i8], ptr @_ZL13validityTable, i64 0, i64 %33
  %35 = load i8, ptr %34, align 1, !tbaa !39
  %36 = zext i8 %35 to i32
  %37 = load i8, ptr %11, align 1, !tbaa !39
  %38 = zext i8 %37 to i32
  %39 = and i32 %36, %38
  %40 = icmp ne i32 %39, 0
  br i1 %40, label %47, label %41

41:                                               ; preds = %31
  %42 = load i32, ptr %10, align 4, !tbaa !18
  %43 = icmp eq i32 %42, 6
  br i1 %43, label %44, label %59

44:                                               ; preds = %41
  %45 = load i32, ptr %9, align 4, !tbaa !18
  %46 = icmp eq i32 %45, 49
  br i1 %46, label %47, label %59

47:                                               ; preds = %44, %31
  %48 = load ptr, ptr %6, align 8, !tbaa !85
  %49 = getelementptr inbounds nuw %struct.USetAdder, ptr %48, i32 0, i32 1
  %50 = load ptr, ptr %49, align 8, !tbaa !93
  %51 = load ptr, ptr %6, align 8, !tbaa !85
  %52 = getelementptr inbounds nuw %struct.USetAdder, ptr %51, i32 0, i32 0
  %53 = load ptr, ptr %52, align 8, !tbaa !92
  %54 = load i32, ptr %9, align 4, !tbaa !18
  %55 = load i32, ptr %10, align 4, !tbaa !18
  %56 = mul nsw i32 %55, 128
  %57 = add nsw i32 %54, %56
  %58 = add nsw i32 %57, 2304
  call void %50(ptr noundef %53, i32 noundef %58)
  br label %59

59:                                               ; preds = %47, %44, %41
  br label %60

60:                                               ; preds = %59
  %61 = load i32, ptr %9, align 4, !tbaa !18
  %62 = add nsw i32 %61, 1
  store i32 %62, ptr %9, align 4, !tbaa !18
  br label %28, !llvm.loop !94

63:                                               ; preds = %28
  br label %64

64:                                               ; preds = %63
  %65 = load i32, ptr %10, align 4, !tbaa !18
  %66 = add nsw i32 %65, 1
  store i32 %66, ptr %10, align 4, !tbaa !18
  br label %18, !llvm.loop !95

67:                                               ; preds = %18
  %68 = load ptr, ptr %6, align 8, !tbaa !85
  %69 = getelementptr inbounds nuw %struct.USetAdder, ptr %68, i32 0, i32 1
  %70 = load ptr, ptr %69, align 8, !tbaa !93
  %71 = load ptr, ptr %6, align 8, !tbaa !85
  %72 = getelementptr inbounds nuw %struct.USetAdder, ptr %71, i32 0, i32 0
  %73 = load ptr, ptr %72, align 8, !tbaa !92
  call void %70(ptr noundef %73, i32 noundef 2404)
  %74 = load ptr, ptr %6, align 8, !tbaa !85
  %75 = getelementptr inbounds nuw %struct.USetAdder, ptr %74, i32 0, i32 1
  %76 = load ptr, ptr %75, align 8, !tbaa !93
  %77 = load ptr, ptr %6, align 8, !tbaa !85
  %78 = getelementptr inbounds nuw %struct.USetAdder, ptr %77, i32 0, i32 0
  %79 = load ptr, ptr %78, align 8, !tbaa !92
  call void %76(ptr noundef %79, i32 noundef 2405)
  %80 = load ptr, ptr %6, align 8, !tbaa !85
  %81 = getelementptr inbounds nuw %struct.USetAdder, ptr %80, i32 0, i32 1
  %82 = load ptr, ptr %81, align 8, !tbaa !93
  %83 = load ptr, ptr %6, align 8, !tbaa !85
  %84 = getelementptr inbounds nuw %struct.USetAdder, ptr %83, i32 0, i32 0
  %85 = load ptr, ptr %84, align 8, !tbaa !92
  call void %82(ptr noundef %85, i32 noundef 8204)
  %86 = load ptr, ptr %6, align 8, !tbaa !85
  %87 = getelementptr inbounds nuw %struct.USetAdder, ptr %86, i32 0, i32 1
  %88 = load ptr, ptr %87, align 8, !tbaa !93
  %89 = load ptr, ptr %6, align 8, !tbaa !85
  %90 = getelementptr inbounds nuw %struct.USetAdder, ptr %89, i32 0, i32 0
  %91 = load ptr, ptr %90, align 8, !tbaa !92
  call void %88(ptr noundef %91, i32 noundef 8205)
  call void @llvm.lifetime.end.p0(i64 1, ptr %11) #10
  call void @llvm.lifetime.end.p0(i64 4, ptr %10) #10
  call void @llvm.lifetime.end.p0(i64 4, ptr %9) #10
  ret void
}