; Function Attrs: mustprogress uwtable
define internal void @_ZL19_ISCIIGetUnicodeSetPK10UConverterPK9USetAdder20UConverterUnicodeSetP10UErrorCode(ptr readnone captures(none) %0, ptr noundef readonly captures(none) %1, i32 %2, ptr readnone captures(none) %3) #0 {
  %5 = getelementptr inbounds nuw i8, ptr %1, i64 16
  %6 = load ptr, ptr %5, align 8, !tbaa !76
  %7 = load ptr, ptr %1, align 8, !tbaa !79
  tail call void %6(ptr noundef %7, i32 noundef 0, i32 noundef 160)
  %8 = getelementptr inbounds nuw i8, ptr %1, i64 8
  br label %9

9:                                                ; preds = %4, %.split26.us
  %indvars.iv34 = phi i64 [ 0, %4 ], [ %indvars.iv.next35, %.split26.us ]
  %10 = getelementptr inbounds nuw [9 x %struct.LookupDataStruct], ptr @_ZL17lookupInitialData, i64 0, i64 %indvars.iv34, i32 1
  %11 = load i32, ptr %10, align 4, !tbaa !30
  %12 = icmp eq i64 %indvars.iv34, 6
  %13 = shl nuw nsw i64 %indvars.iv34, 7
  %14 = add nuw nsw i64 %13, 2304
  br i1 %12, label %.split, label %.split.us

.split.us:                                        ; preds = %9, %24
  %indvars.iv = phi i64 [ %indvars.iv.next, %24 ], [ 0, %9 ]
  %15 = getelementptr inbounds nuw [128 x i8], ptr @_ZL13validityTable, i64 0, i64 %indvars.iv
  %16 = load i8, ptr %15, align 1, !tbaa !35
  %17 = zext i8 %16 to i32
  %18 = and i32 %11, %17
  %.not.us = icmp eq i32 %18, 0
  br i1 %.not.us, label %24, label %19

19:                                               ; preds = %.split.us
  %20 = load ptr, ptr %8, align 8, !tbaa !80
  %21 = load ptr, ptr %1, align 8, !tbaa !79
  %22 = add nuw nsw i64 %14, %indvars.iv
  %23 = trunc nuw nsw i64 %22 to i32
  tail call void %20(ptr noundef %21, i32 noundef %23)
  br label %24

24:                                               ; preds = %.split.us, %19
  %indvars.iv.next = add nuw nsw i64 %indvars.iv, 1
  %exitcond.not = icmp eq i64 %indvars.iv.next, 128
  br i1 %exitcond.not, label %.split26.us, label %.split.us, !llvm.loop !81

.split:                                           ; preds = %9, %35
  %indvars.iv30 = phi i64 [ %indvars.iv.next31, %35 ], [ 0, %9 ]
  %25 = getelementptr inbounds nuw [128 x i8], ptr @_ZL13validityTable, i64 0, i64 %indvars.iv30
  %26 = load i8, ptr %25, align 1, !tbaa !35
  %27 = zext i8 %26 to i32
  %28 = and i32 %11, %27
  %.not = icmp ne i32 %28, 0
  %29 = icmp eq i64 %indvars.iv30, 49
  %or.cond = or i1 %.not, %29
  br i1 %or.cond, label %30, label %35

30:                                               ; preds = %.split
  %31 = load ptr, ptr %8, align 8, !tbaa !80
  %32 = load ptr, ptr %1, align 8, !tbaa !79
  %33 = add nuw nsw i64 %14, %indvars.iv30
  %34 = trunc nuw nsw i64 %33 to i32
  tail call void %31(ptr noundef %32, i32 noundef %34)
  br label %35

35:                                               ; preds = %.split, %30
  %indvars.iv.next31 = add nuw nsw i64 %indvars.iv30, 1
  %exitcond33.not = icmp eq i64 %indvars.iv.next31, 128
  br i1 %exitcond33.not, label %.split26.us, label %.split, !llvm.loop !81

.split26.us:                                      ; preds = %24, %35
  %indvars.iv.next35 = add nuw nsw i64 %indvars.iv34, 1
  %exitcond37.not = icmp eq i64 %indvars.iv.next35, 9
  br i1 %exitcond37.not, label %36, label %9, !llvm.loop !82

36:                                               ; preds = %.split26.us
  %37 = load ptr, ptr %8, align 8, !tbaa !80
  %38 = load ptr, ptr %1, align 8, !tbaa !79
  tail call void %37(ptr noundef %38, i32 noundef 2404)
  %39 = load ptr, ptr %8, align 8, !tbaa !80
  %40 = load ptr, ptr %1, align 8, !tbaa !79
  tail call void %39(ptr noundef %40, i32 noundef 2405)
  %41 = load ptr, ptr %8, align 8, !tbaa !80
  %42 = load ptr, ptr %1, align 8, !tbaa !79
  tail call void %41(ptr noundef %42, i32 noundef 8204)
  %43 = load ptr, ptr %8, align 8, !tbaa !80
  %44 = load ptr, ptr %1, align 8, !tbaa !79
  tail call void %43(ptr noundef %44, i32 noundef 8205)
  ret void
}